; Function Attrs: mustprogress nofree norecurse nosync nounwind willreturn memory(none) uwtable
define hidden noundef double @_ZN6hermes2vm12timeFromYearEd(double noundef %y) local_unnamed_addr #2 {
entry:
  %sub.i = fadd double %y, -1.970000e+03
  %sub1.i = fadd double %y, -1.969000e+03
  %div.i = fmul double %sub1.i, 2.500000e-01
  %0 = tail call double @llvm.floor.f64(double %div.i)
  %1 = tail call double @llvm.fmuladd.f64(double %sub.i, double 3.650000e+02, double %0)
  %sub2.i = fadd double %y, -1.901000e+03
  %div3.i = fdiv double %sub2.i, 1.000000e+02
  %2 = tail call double @llvm.floor.f64(double %div3.i)
  %sub4.i = fsub double %1, %2
  %sub5.i = fadd double %y, -1.601000e+03
  %div6.i = fdiv double %sub5.i, 4.000000e+02
  %3 = tail call double @llvm.floor.f64(double %div6.i)
  %add.i = fadd double %3, %sub4.i
  %mul = fmul double %add.i, 8.640000e+07
  ret double %mul
}